target datalayout = "e-m:e-p270:32:32-p271:32:32-p272:64:64-i64:64-i128:128-f80:128-n8:16:32:64-S128"
target triple = "x86_64-pc-linux-gnu"

%"class.std::__cxx11::basic_string" = type { %"struct.std::__cxx11::basic_string<char>::_Alloc_hider", i64, %union.anon.5 }
%"struct.std::__cxx11::basic_string<char>::_Alloc_hider" = type { ptr }
%union.anon.5 = type { i64, [8 x i8] }

; Function Attrs: mustprogress nounwind uwtable
define available_externally noundef ptr @_ZNKSt7__cxx1112basic_stringIcSt11char_traitsIcESaIcEE7_M_dataEv(ptr noundef nonnull align 8 dereferenceable(32) %0) #6 align 2 {
  %2 = alloca ptr, align 8
  store ptr %0, ptr %2, align 8, !tbaa !14
  %3 = load ptr, ptr %2, align 8
  %4 = getelementptr inbounds nuw %"class.std::__cxx11::basic_string", ptr %3, i32 0, i32 0
  %5 = getelementptr inbounds nuw %"struct.std::__cxx11::basic_string<char>::_Alloc_hider", ptr %4, i32 0, i32 0
  %6 = load ptr, ptr %5, align 8, !tbaa !539
  ret ptr %6
}

; Function Attrs: mustprogress uwtable
define available_externally void @_ZNSt7__cxx1112basic_stringIcSt11char_traitsIcESaIcEE6resizeEm(ptr noundef nonnull align 8 dereferenceable(32) %0, i64 noundef %1) #4 align 2 {
  %3 = alloca ptr, align 8
  %4 = alloca i64, align 8
  store ptr %0, ptr %3, align 8, !tbaa !14
  store i64 %1, ptr %4, align 8, !tbaa !42
  %5 = load ptr, ptr %3, align 8
  %6 = load i64, ptr %4, align 8, !tbaa !42
  call void @_ZNSt7__cxx1112basic_stringIcSt11char_traitsIcESaIcEE6resizeEmc(ptr noundef nonnull align 8 dereferenceable(32) %5, i64 noundef %6, i8 noundef signext 0)
  ret void
}

; Function Attrs: mustprogress nounwind uwtable
define available_externally noundef nonnull align 1 dereferenceable(1) ptr @_ZNSt7__cxx1112basic_stringIcSt11char_traitsIcESaIcEEixEm(ptr noundef nonnull align 8 dereferenceable(32) %0, i64 noundef %1) #6 align 2 {
  %3 = alloca ptr, align 8
  %4 = alloca i64, align 8
  store ptr %0, ptr %3, align 8, !tbaa !14
  store i64 %1, ptr %4, align 8, !tbaa !42
  %5 = load ptr, ptr %3, align 8
  br label %6

6:                                                ; preds = %2
  br label %7

7:                                                ; preds = %6
  %8 = call noundef ptr @_ZNKSt7__cxx1112basic_stringIcSt11char_traitsIcESaIcEE7_M_dataEv(ptr noundef nonnull align 8 dereferenceable(32) %5)
  %9 = load i64, ptr %4, align 8, !tbaa !42
  %10 = getelementptr inbounds nuw i8, ptr %8, i64 %9
  ret ptr %10
}

; Function Attrs: mustprogress nounwind uwtable
define available_externally noundef i64 @_ZNKSt7__cxx1112basic_stringIcSt11char_traitsIcESaIcEE6lengthEv(ptr noundef nonnull align 8 dereferenceable(32) %0) #6 align 2 {
  %2 = alloca ptr, align 8
  store ptr %0, ptr %2, align 8, !tbaa !14
  %3 = load ptr, ptr %2, align 8
  %4 = getelementptr inbounds nuw %"class.std::__cxx11::basic_string", ptr %3, i32 0, i32 1
  %5 = load i64, ptr %4, align 8, !tbaa !47
  ret i64 %5
}

; Function Attrs: mustprogress uwtable
define void @_Z22string_process_escapesRNSt7__cxx1112basic_stringIcSt11char_traitsIcESaIcEEE(ptr noundef nonnull align 8 dereferenceable(32) %0) #4 {
  %2 = alloca ptr, align 8
  %3 = alloca i64, align 8
  %4 = alloca i64, align 8
  %5 = alloca i64, align 8
  %6 = alloca i32, align 4
  %7 = alloca [3 x i8], align 1
  %8 = alloca ptr, align 8
  %9 = alloca i64, align 8
  store ptr %0, ptr %2, align 8, !tbaa !14
  call void @llvm.lifetime.start.p0(i64 8, ptr %3) #3
  %10 = load ptr, ptr %2, align 8, !tbaa !14
  %11 = call noundef i64 @_ZNKSt7__cxx1112basic_stringIcSt11char_traitsIcESaIcEE6lengthEv(ptr noundef nonnull align 8 dereferenceable(32) %10) #3
  store i64 %11, ptr %3, align 8, !tbaa !42
  call void @llvm.lifetime.start.p0(i64 8, ptr %4) #3
  store i64 0, ptr %4, align 8, !tbaa !42
  call void @llvm.lifetime.start.p0(i64 8, ptr %5) #3
  store i64 0, ptr %5, align 8, !tbaa !42
  br label %12

12:                                               ; preds = %128, %1
  %13 = load i64, ptr %5, align 8, !tbaa !42
  %14 = load i64, ptr %3, align 8, !tbaa !42
  %15 = icmp ult i64 %13, %14
  br i1 %15, label %17, label %16

16:                                               ; preds = %12
  store i32 2, ptr %6, align 4
  call void @llvm.lifetime.end.p0(i64 8, ptr %5) #3
  br label %131

17:                                               ; preds = %12
  %18 = load ptr, ptr %2, align 8, !tbaa !14
  %19 = load i64, ptr %5, align 8, !tbaa !42
  %20 = call noundef nonnull align 1 dereferenceable(1) ptr @_ZNSt7__cxx1112basic_stringIcSt11char_traitsIcESaIcEEixEm(ptr noundef nonnull align 8 dereferenceable(32) %18, i64 noundef %19)
  %21 = load i8, ptr %20, align 1, !tbaa !35
  %22 = sext i8 %21 to i32
  %23 = icmp eq i32 %22, 92
  br i1 %23, label %24, label %118

24:                                               ; preds = %17
  %25 = load i64, ptr %5, align 8, !tbaa !42
  %26 = add i64 %25, 1
  %27 = load i64, ptr %3, align 8, !tbaa !42
  %28 = icmp ult i64 %26, %27
  br i1 %28, label %29, label %118

29:                                               ; preds = %24
  %30 = load ptr, ptr %2, align 8, !tbaa !14
  %31 = load i64, ptr %5, align 8, !tbaa !42
  %32 = add i64 %31, 1
  store i64 %32, ptr %5, align 8, !tbaa !42
  %33 = call noundef nonnull align 1 dereferenceable(1) ptr @_ZNSt7__cxx1112basic_stringIcSt11char_traitsIcESaIcEEixEm(ptr noundef nonnull align 8 dereferenceable(32) %30, i64 noundef %32)
  %34 = load i8, ptr %33, align 1, !tbaa !35
  %35 = sext i8 %34 to i32
  switch i32 %35, label %104 [
    i32 110, label %36
    i32 114, label %41
    i32 116, label %46
    i32 39, label %51
    i32 34, label %56
    i32 92, label %61
    i32 120, label %66
  ]

36:                                               ; preds = %29
  %37 = load ptr, ptr %2, align 8, !tbaa !14
  %38 = load i64, ptr %4, align 8, !tbaa !42
  %39 = add i64 %38, 1
  store i64 %39, ptr %4, align 8, !tbaa !42
  %40 = call noundef nonnull align 1 dereferenceable(1) ptr @_ZNSt7__cxx1112basic_stringIcSt11char_traitsIcESaIcEEixEm(ptr noundef nonnull align 8 dereferenceable(32) %37, i64 noundef %38)
  store i8 10, ptr %40, align 1, !tbaa !35
  br label %117

41:                                               ; preds = %29
  %42 = load ptr, ptr %2, align 8, !tbaa !14
  %43 = load i64, ptr %4, align 8, !tbaa !42
  %44 = add i64 %43, 1
  store i64 %44, ptr %4, align 8, !tbaa !42
  %45 = call noundef nonnull align 1 dereferenceable(1) ptr @_ZNSt7__cxx1112basic_stringIcSt11char_traitsIcESaIcEEixEm(ptr noundef nonnull align 8 dereferenceable(32) %42, i64 noundef %43)
  store i8 13, ptr %45, align 1, !tbaa !35
  br label %117

46:                                               ; preds = %29
  %47 = load ptr, ptr %2, align 8, !tbaa !14
  %48 = load i64, ptr %4, align 8, !tbaa !42
  %49 = add i64 %48, 1
  store i64 %49, ptr %4, align 8, !tbaa !42
  %50 = call noundef nonnull align 1 dereferenceable(1) ptr @_ZNSt7__cxx1112basic_stringIcSt11char_traitsIcESaIcEEixEm(ptr noundef nonnull align 8 dereferenceable(32) %47, i64 noundef %48)
  store i8 9, ptr %50, align 1, !tbaa !35
  br label %117

51:                                               ; preds = %29
  %52 = load ptr, ptr %2, align 8, !tbaa !14
  %53 = load i64, ptr %4, align 8, !tbaa !42
  %54 = add i64 %53, 1
  store i64 %54, ptr %4, align 8, !tbaa !42
  %55 = call noundef nonnull align 1 dereferenceable(1) ptr @_ZNSt7__cxx1112basic_stringIcSt11char_traitsIcESaIcEEixEm(ptr noundef nonnull align 8 dereferenceable(32) %52, i64 noundef %53)
  store i8 39, ptr %55, align 1, !tbaa !35
  br label %117

56:                                               ; preds = %29
  %57 = load ptr, ptr %2, align 8, !tbaa !14
  %58 = load i64, ptr %4, align 8, !tbaa !42
  %59 = add i64 %58, 1
  store i64 %59, ptr %4, align 8, !tbaa !42
  %60 = call noundef nonnull align 1 dereferenceable(1) ptr @_ZNSt7__cxx1112basic_stringIcSt11char_traitsIcESaIcEEixEm(ptr noundef nonnull align 8 dereferenceable(32) %57, i64 noundef %58)
  store i8 34, ptr %60, align 1, !tbaa !35
  br label %117

61:                                               ; preds = %29
  %62 = load ptr, ptr %2, align 8, !tbaa !14
  %63 = load i64, ptr %4, align 8, !tbaa !42
  %64 = add i64 %63, 1
  store i64 %64, ptr %4, align 8, !tbaa !42
  %65 = call noundef nonnull align 1 dereferenceable(1) ptr @_ZNSt7__cxx1112basic_stringIcSt11char_traitsIcESaIcEEixEm(ptr noundef nonnull align 8 dereferenceable(32) %62, i64 noundef %63)
  store i8 92, ptr %65, align 1, !tbaa !35
  br label %117

66:                                               ; preds = %29
  %67 = load i64, ptr %5, align 8, !tbaa !42
  %68 = add i64 %67, 2
  %69 = load i64, ptr %3, align 8, !tbaa !42
  %70 = icmp ult i64 %68, %69
  br i1 %70, label %71, label %103

71:                                               ; preds = %66
  call void @llvm.lifetime.start.p0(i64 3, ptr %7) #3
  %72 = load ptr, ptr %2, align 8, !tbaa !14
  %73 = load i64, ptr %5, align 8, !tbaa !42
  %74 = add i64 %73, 1
  %75 = call noundef nonnull align 1 dereferenceable(1) ptr @_ZNSt7__cxx1112basic_stringIcSt11char_traitsIcESaIcEEixEm(ptr noundef nonnull align 8 dereferenceable(32) %72, i64 noundef %74)
  %76 = load i8, ptr %75, align 1, !tbaa !35
  store i8 %76, ptr %7, align 1, !tbaa !35
  %77 = getelementptr inbounds i8, ptr %7, i64 1
  %78 = load ptr, ptr %2, align 8, !tbaa !14
  %79 = load i64, ptr %5, align 8, !tbaa !42
  %80 = add i64 %79, 2
  %81 = call noundef nonnull align 1 dereferenceable(1) ptr @_ZNSt7__cxx1112basic_stringIcSt11char_traitsIcESaIcEEixEm(ptr noundef nonnull align 8 dereferenceable(32) %78, i64 noundef %80)
  %82 = load i8, ptr %81, align 1, !tbaa !35
  store i8 %82, ptr %77, align 1, !tbaa !35
  %83 = getelementptr inbounds i8, ptr %7, i64 2
  store i8 0, ptr %83, align 1, !tbaa !35
  call void @llvm.lifetime.start.p0(i64 8, ptr %8) #3
  store ptr null, ptr %8, align 8, !tbaa !16
  call void @llvm.lifetime.start.p0(i64 8, ptr %9) #3
  %84 = getelementptr inbounds [3 x i8], ptr %7, i64 0, i64 0
  %85 = call i64 @strtol(ptr noundef %84, ptr noundef %8, i32 noundef 16) #3
  store i64 %85, ptr %9, align 8, !tbaa !42
  %86 = load ptr, ptr %8, align 8, !tbaa !16
  %87 = getelementptr inbounds [3 x i8], ptr %7, i64 0, i64 0
  %88 = getelementptr inbounds i8, ptr %87, i64 2
  %89 = icmp eq ptr %86, %88
  br i1 %89, label %90, label %99

90:                                               ; preds = %71
  %91 = load i64, ptr %5, align 8, !tbaa !42
  %92 = add i64 %91, 2
  store i64 %92, ptr %5, align 8, !tbaa !42
  %93 = load i64, ptr %9, align 8, !tbaa !42
  %94 = trunc i64 %93 to i8
  %95 = load ptr, ptr %2, align 8, !tbaa !14
  %96 = load i64, ptr %4, align 8, !tbaa !42
  %97 = add i64 %96, 1
  store i64 %97, ptr %4, align 8, !tbaa !42
  %98 = call noundef nonnull align 1 dereferenceable(1) ptr @_ZNSt7__cxx1112basic_stringIcSt11char_traitsIcESaIcEEixEm(ptr noundef nonnull align 8 dereferenceable(32) %95, i64 noundef %96)
  store i8 %94, ptr %98, align 1, !tbaa !35
  store i32 5, ptr %6, align 4
  br label %100

99:                                               ; preds = %71
  store i32 0, ptr %6, align 4
  br label %100

100:                                              ; preds = %99, %90
  call void @llvm.lifetime.end.p0(i64 8, ptr %9) #3
  call void @llvm.lifetime.end.p0(i64 8, ptr %8) #3
  call void @llvm.lifetime.end.p0(i64 3, ptr %7) #3
  %101 = load i32, ptr %6, align 4
  switch i32 %101, label %134 [
    i32 0, label %102
    i32 5, label %117
  ]

102:                                              ; preds = %100
  br label %103

103:                                              ; preds = %102, %66
  br label %104

104:                                              ; preds = %29, %103
  %105 = load ptr, ptr %2, align 8, !tbaa !14
  %106 = load i64, ptr %4, align 8, !tbaa !42
  %107 = add i64 %106, 1
  store i64 %107, ptr %4, align 8, !tbaa !42
  %108 = call noundef nonnull align 1 dereferenceable(1) ptr @_ZNSt7__cxx1112basic_stringIcSt11char_traitsIcESaIcEEixEm(ptr noundef nonnull align 8 dereferenceable(32) %105, i64 noundef %106)
  store i8 92, ptr %108, align 1, !tbaa !35
  %109 = load ptr, ptr %2, align 8, !tbaa !14
  %110 = load i64, ptr %5, align 8, !tbaa !42
  %111 = call noundef nonnull align 1 dereferenceable(1) ptr @_ZNSt7__cxx1112basic_stringIcSt11char_traitsIcESaIcEEixEm(ptr noundef nonnull align 8 dereferenceable(32) %109, i64 noundef %110)
  %112 = load i8, ptr %111, align 1, !tbaa !35
  %113 = load ptr, ptr %2, align 8, !tbaa !14
  %114 = load i64, ptr %4, align 8, !tbaa !42
  %115 = add i64 %114, 1
  store i64 %115, ptr %4, align 8, !tbaa !42
  %116 = call noundef nonnull align 1 dereferenceable(1) ptr @_ZNSt7__cxx1112basic_stringIcSt11char_traitsIcESaIcEEixEm(ptr noundef nonnull align 8 dereferenceable(32) %113, i64 noundef %114)
  store i8 %112, ptr %116, align 1, !tbaa !35
  br label %117

117:                                              ; preds = %104, %100, %61, %56, %51, %46, %41, %36
  br label %127

118:                                              ; preds = %24, %17
  %119 = load ptr, ptr %2, align 8, !tbaa !14
  %120 = load i64, ptr %5, align 8, !tbaa !42
  %121 = call noundef nonnull align 1 dereferenceable(1) ptr @_ZNSt7__cxx1112basic_stringIcSt11char_traitsIcESaIcEEixEm(ptr noundef nonnull align 8 dereferenceable(32) %119, i64 noundef %120)
  %122 = load i8, ptr %121, align 1, !tbaa !35
  %123 = load ptr, ptr %2, align 8, !tbaa !14
  %124 = load i64, ptr %4, align 8, !tbaa !42
  %125 = add i64 %124, 1
  store i64 %125, ptr %4, align 8, !tbaa !42
  %126 = call noundef nonnull align 1 dereferenceable(1) ptr @_ZNSt7__cxx1112basic_stringIcSt11char_traitsIcESaIcEEixEm(ptr noundef nonnull align 8 dereferenceable(32) %123, i64 noundef %124)
  store i8 %122, ptr %126, align 1, !tbaa !35
  br label %127

127:                                              ; preds = %118, %117
  br label %128

128:                                              ; preds = %127
  %129 = load i64, ptr %5, align 8, !tbaa !42
  %130 = add i64 %129, 1
  store i64 %130, ptr %5, align 8, !tbaa !42
  br label %12, !llvm.loop !185

131:                                              ; preds = %16
  %132 = load ptr, ptr %2, align 8, !tbaa !14
  %133 = load i64, ptr %4, align 8, !tbaa !42
  call void @_ZNSt7__cxx1112basic_stringIcSt11char_traitsIcESaIcEE6resizeEm(ptr noundef nonnull align 8 dereferenceable(32) %132, i64 noundef %133)
  call void @llvm.lifetime.end.p0(i64 8, ptr %4) #3
  call void @llvm.lifetime.end.p0(i64 8, ptr %3) #3
  ret void

134:                                              ; preds = %100
  unreachable
}