; Function Attrs: mustprogress uwtable
define void @_Z22string_process_escapesRNSt7__cxx1112basic_stringIcSt11char_traitsIcESaIcEEE(ptr noundef nonnull align 8 dereferenceable(32) %0) local_unnamed_addr #3 {
  %2 = alloca [3 x i8], align 1
  %3 = alloca ptr, align 8
  %4 = getelementptr inbounds nuw i8, ptr %0, i64 8
  %5 = load i64, ptr %4, align 8, !tbaa !27
  %.not = icmp eq i64 %5, 0
  br i1 %.not, label %._crit_edge, label %.lr.ph

.lr.ph:                                           ; preds = %1
  %6 = getelementptr inbounds nuw i8, ptr %2, i64 1
  %7 = getelementptr inbounds nuw i8, ptr %2, i64 2
  br label %8

._crit_edge:                                      ; preds = %65, %1
  %.0.lcssa = phi i64 [ 0, %1 ], [ %.3, %65 ]
  call void @_ZNSt7__cxx1112basic_stringIcSt11char_traitsIcESaIcEE6resizeEmc(ptr noundef nonnull align 8 dereferenceable(32) %0, i64 noundef %.0.lcssa, i8 noundef signext 0)
  ret void

8:                                                ; preds = %.lr.ph, %65
  %.057 = phi i64 [ 0, %.lr.ph ], [ %.3, %65 ]
  %.04556 = phi i64 [ 0, %.lr.ph ], [ %66, %65 ]
  %9 = load ptr, ptr %0, align 8, !tbaa !25
  %10 = getelementptr i8, ptr %9, i64 %.04556
  %11 = load i8, ptr %10, align 1, !tbaa !28
  %12 = icmp eq i8 %11, 92
  br i1 %12, label %13, label %62

13:                                               ; preds = %8
  %14 = add nuw i64 %.04556, 1
  %15 = icmp ult i64 %14, %5
  br i1 %15, label %16, label %62

16:                                               ; preds = %13
  %17 = getelementptr inbounds nuw i8, ptr %9, i64 %14
  %18 = load i8, ptr %17, align 1, !tbaa !28
  switch i8 %18, label %53 [
    i8 110, label %19
    i8 114, label %22
    i8 116, label %25
    i8 39, label %28
    i8 34, label %31
    i8 92, label %34
    i8 120, label %37
  ]

19:                                               ; preds = %16
  %20 = add i64 %.057, 1
  %21 = getelementptr inbounds nuw i8, ptr %9, i64 %.057
  store i8 10, ptr %21, align 1, !tbaa !28
  br label %65

22:                                               ; preds = %16
  %23 = add i64 %.057, 1
  %24 = getelementptr inbounds nuw i8, ptr %9, i64 %.057
  store i8 13, ptr %24, align 1, !tbaa !28
  br label %65

25:                                               ; preds = %16
  %26 = add i64 %.057, 1
  %27 = getelementptr inbounds nuw i8, ptr %9, i64 %.057
  store i8 9, ptr %27, align 1, !tbaa !28
  br label %65

28:                                               ; preds = %16
  %29 = add i64 %.057, 1
  %30 = getelementptr inbounds nuw i8, ptr %9, i64 %.057
  store i8 39, ptr %30, align 1, !tbaa !28
  br label %65

31:                                               ; preds = %16
  %32 = add i64 %.057, 1
  %33 = getelementptr inbounds nuw i8, ptr %9, i64 %.057
  store i8 34, ptr %33, align 1, !tbaa !28
  br label %65

34:                                               ; preds = %16
  %35 = add i64 %.057, 1
  %36 = getelementptr inbounds nuw i8, ptr %9, i64 %.057
  store i8 92, ptr %36, align 1, !tbaa !28
  br label %65

37:                                               ; preds = %16
  %38 = add i64 %.04556, 3
  %39 = icmp ult i64 %38, %5
  br i1 %39, label %40, label %53

40:                                               ; preds = %37
  call void @llvm.lifetime.start.p0(i64 3, ptr nonnull %2) #37
  %41 = getelementptr i8, ptr %10, i64 2
  %42 = load i8, ptr %41, align 1, !tbaa !28
  store i8 %42, ptr %2, align 1, !tbaa !28
  %43 = getelementptr inbounds nuw i8, ptr %9, i64 %38
  %44 = load i8, ptr %43, align 1, !tbaa !28
  store i8 %44, ptr %6, align 1, !tbaa !28
  store i8 0, ptr %7, align 1, !tbaa !28
  call void @llvm.lifetime.start.p0(i64 8, ptr nonnull %3) #37
  store ptr null, ptr %3, align 8, !tbaa !85
  %45 = call i64 @strtol(ptr noundef nonnull %2, ptr noundef nonnull %3, i32 noundef 16) #37
  %46 = load ptr, ptr %3, align 8, !tbaa !85
  %47 = icmp eq ptr %46, %7
  br i1 %47, label %48, label %.thread

.thread:                                          ; preds = %40
  call void @llvm.lifetime.end.p0(i64 8, ptr nonnull %3) #37
  call void @llvm.lifetime.end.p0(i64 3, ptr nonnull %2) #37
  %.pre = load ptr, ptr %0, align 8, !tbaa !25
  br label %53

48:                                               ; preds = %40
  %49 = trunc i64 %45 to i8
  %50 = add i64 %.057, 1
  %51 = load ptr, ptr %0, align 8, !tbaa !25
  %52 = getelementptr inbounds nuw i8, ptr %51, i64 %.057
  store i8 %49, ptr %52, align 1, !tbaa !28
  call void @llvm.lifetime.end.p0(i64 8, ptr nonnull %3) #37
  call void @llvm.lifetime.end.p0(i64 3, ptr nonnull %2) #37
  br label %65

53:                                               ; preds = %.thread, %37, %16
  %54 = phi ptr [ %.pre, %.thread ], [ %9, %37 ], [ %9, %16 ]
  %55 = getelementptr inbounds nuw i8, ptr %54, i64 %.057
  store i8 92, ptr %55, align 1, !tbaa !28
  %56 = load ptr, ptr %0, align 8, !tbaa !25
  %57 = getelementptr inbounds nuw i8, ptr %56, i64 %14
  %58 = load i8, ptr %57, align 1, !tbaa !28
  %59 = add i64 %.057, 2
  %60 = getelementptr i8, ptr %56, i64 %.057
  %61 = getelementptr i8, ptr %60, i64 1
  store i8 %58, ptr %61, align 1, !tbaa !28
  br label %65

62:                                               ; preds = %13, %8
  %63 = add i64 %.057, 1
  %64 = getelementptr inbounds nuw i8, ptr %9, i64 %.057
  store i8 %11, ptr %64, align 1, !tbaa !28
  br label %65

65:                                               ; preds = %48, %62, %53, %34, %31, %28, %25, %22, %19
  %.348 = phi i64 [ %14, %53 ], [ %38, %48 ], [ %14, %34 ], [ %14, %31 ], [ %14, %28 ], [ %14, %25 ], [ %14, %22 ], [ %14, %19 ], [ %.04556, %62 ]
  %.3 = phi i64 [ %59, %53 ], [ %50, %48 ], [ %35, %34 ], [ %32, %31 ], [ %29, %28 ], [ %26, %25 ], [ %23, %22 ], [ %20, %19 ], [ %63, %62 ]
  %66 = add nuw i64 %.348, 1
  %67 = icmp ult i64 %66, %5
  br i1 %67, label %8, label %._crit_edge, !llvm.loop !261
}